; Function Attrs: mustprogress uwtable
define void @_ZN6icu_7716ICULocaleServiceC2ERKNS_13UnicodeStringE(ptr noundef nonnull align 8 dereferenceable(408) %0, ptr noundef nonnull align 8 dereferenceable(64) %1) unnamed_addr #1 align 2 personality ptr @__gxx_personality_v0 {
  tail call void @_ZN6icu_7710ICUServiceC2ERKNS_13UnicodeStringE(ptr noundef nonnull align 8 dereferenceable(120) %0, ptr noundef nonnull align 8 dereferenceable(64) %1)
  store ptr getelementptr inbounds nuw inrange(-16, 192) (i8, ptr @_ZTVN6icu_7716ICULocaleServiceE, i64 16), ptr %0, align 8, !tbaa !15
  %3 = invoke noundef nonnull align 8 dereferenceable(217) ptr @_ZN6icu_776Locale10getDefaultEv()
          to label %4 unwind label %9

4:                                                ; preds = %2
  %5 = getelementptr inbounds nuw i8, ptr %0, i64 120
  invoke void @_ZN6icu_776LocaleC1ERKS0_(ptr noundef nonnull align 8 dereferenceable(217) %5, ptr noundef nonnull align 8 dereferenceable(217) %3)
          to label %6 unwind label %9

6:                                                ; preds = %4
  %7 = getelementptr inbounds nuw i8, ptr %0, i64 344
  store ptr getelementptr inbounds nuw inrange(-16, 88) (i8, ptr @_ZTVN6icu_7713UnicodeStringE, i64 16), ptr %7, align 8, !tbaa !15
  %8 = getelementptr inbounds nuw i8, ptr %0, i64 352
  store i16 2, ptr %8, align 8, !tbaa !17
  ret void

9:                                                ; preds = %4, %2
  %10 = landingpad { ptr, i32 }
          cleanup
  tail call void @_ZN6icu_7710ICUServiceD2Ev(ptr noundef nonnull align 8 dereferenceable(120) %0) #15
  resume { ptr, i32 } %10
}